(dp0
S'AND_2_0_001'
p1
I0
sS'AND_2_0_004'
p2
I3
sS'PLACE_3_0_008'
p3
I7
sS'THEN_0_0_007'
p4
I6
sS'OR_1_0_009'
p5
I8
sS'THEN_0_0_002'
p6
I1
sS'PLACE_3_0_010'
p7
I9
sS'PLACE_3_0_011'
p8
I10
sS'PLACE_3_0_003'
p9
I2
sS'PLACE_3_0_012'
p10
I11
sS'PLACE_3_0_006'
p11
I5
sS'PLACE_3_0_005'
p12
I4
s.